(dp0
S'([1, 5], [2, 3, 4, 6])'
p1
F0.5087146344362369
sS'([1, 3, 5, 6], [2], [4])'
p2
F0.3064632242990544
sS'([1, 4], [2], [3, 5], [6])'
p3
F0.16712417055574438
sS'([1, 2, 5, 6], [3, 4])'
p4
F0.2839936263235968
sS'([1, 5], [2, 3], [4, 6])'
p5
F0.44805589195805046
sS'([1, 2, 3, 4, 5, 6],)'
p6
F0.8003844935234078
sS'([1, 4], [2], [3, 6], [5])'
p7
F0.16001948511208006
sS'([1, 5, 6], [2], [3, 4])'
p8
F0.19353246177913944
sS'([1, 3], [2, 5, 6], [4])'
p9
F0.2269773209352315
sS'([1, 6], [2, 3], [4], [5])'
p10
F0.4310426962066946
sS'([1, 3], [2, 4, 6], [5])'
p11
F0.20862203711525626
sS'([1], [2, 3, 5], [4], [6])'
p12
F0.46621911249794784
sS'([1, 2, 6], [3, 4, 5])'
p13
F0.2628386349006344
sS'([1, 4, 5, 6], [2, 3])'
p14
F0.5168568813440734
sS'([1, 3], [2], [4, 5, 6])'
p15
F0.2228815564533214
sS'([1, 2], [3], [4, 6], [5])'
p16
F0.1724107588407193
sS'([1], [2, 3, 5, 6], [4])'
p17
F0.49787604854600126
sS'([1, 4], [2, 3], [5], [6])'
p18
F0.43180890411540357
sS'([1, 6], [2, 3, 4, 5])'
p19
F0.5217440731232771
sS'([1, 2], [3, 5, 6], [4])'
p20
F0.23166811773736168
sS'([1, 2], [3], [4], [5, 6])'
p21
F0.17439402805755325
sS'([1], [2, 3, 4], [5, 6])'
p22
F0.4522985038836231
sS'([1, 4, 5], [2, 6], [3])'
p23
F0.21356127410019934
sS'([1, 6], [2], [3], [4, 5])'
p24
F0.16767515122280682
sS'([1], [2, 3, 4], [5], [6])'
p25
F0.4484218342249981
sS'([1], [2, 5], [3, 4, 6])'
p26
F0.19867998652021698
sS'([1], [2, 3, 5], [4, 6])'
p27
F0.4728044889889415
sS'([1], [2], [3], [4, 5], [6])'
p28
F0.14448255718299016
sS'([1], [2], [3, 4, 5, 6])'
p29
F0.286366986720117
sS'([1, 2], [3, 5], [4], [6])'
p30
F0.1719349212696025
sS'([1, 2, 6], [3], [4, 5])'
p31
F0.22214932799560022
sS'([1], [2, 3], [4], [5, 6])'
p32
F0.42838104374454805
sS'([1], [2, 4, 5, 6], [3])'
p33
F0.27514252613895757
sS'([1], [2, 4], [3], [5], [6])'
p34
F0.12959143692897965
sS'([1, 5], [2], [3], [4], [6])'
p35
F0.14859484113531488
sS'([1, 2], [3, 6], [4, 5])'
p36
F0.186136759258527
sS'([1, 3], [2], [4], [5], [6])'
p37
F0.16609182681465673
sS'([1, 2], [3, 5], [4, 6])'
p38
F0.18917817195291445
sS'([1, 5], [2, 3, 4], [6])'
p39
F0.46274811413443706
sS'([1, 2, 5], [3, 4], [6])'
p40
F0.2166934498863695
sS'([1, 4, 6], [2, 3], [5])'
p41
F0.462866058804114
sS'([1], [2, 3], [4, 5], [6])'
p42
F0.43071914328492555
sS'([1], [2, 4, 5], [3, 6])'
p43
F0.22109123765174762
sS'([1, 3], [2, 6], [4], [5])'
p44
F0.1801888083333207
sS'([1, 2], [3], [4], [5], [6])'
p45
F0.15376272384487547
sS'([1, 5, 6], [2, 3], [4])'
p46
F0.4620347159828851
sS'([1, 4], [2, 5, 6], [3])'
p47
F0.2039367170859165
sS'([1, 5, 6], [2], [3], [4])'
p48
F0.1890479780930531
sS'([1, 3, 4], [2], [5, 6])'
p49
F0.22281492385710283
sS'([1, 6], [2], [3, 4], [5])'
p50
F0.1575927227047763
sS'([1, 4], [2], [3], [5], [6])'
p51
F0.14938712652814964
sS'([1, 4], [2, 3, 5, 6])'
p52
F0.5083333679620304
sS'([1, 2], [3, 4, 6], [5])'
p53
F0.2105558985202148
sS'([1, 6], [2, 3], [4, 5])'
p54
F0.4375139475580901
sS'([1, 2, 3, 6], [4, 5])'
p55
F0.7163208450441699
sS'([1, 3, 6], [2, 5], [4])'
p56
F0.24850473781308902
sS'([1, 3, 6], [2], [4], [5])'
p57
F0.22323550508892578
sS'([1], [2, 6], [3], [4], [5])'
p58
F0.1366382250723057
sS'([1, 4], [2, 5], [3, 6])'
p59
F0.1833400565977699
sS'([1, 6], [2], [3, 4, 5])'
p60
F0.2088595177516115
sS'([1, 4, 6], [2, 5], [3])'
p61
F0.23381037870957908
sS'([1, 5, 6], [2, 4], [3])'
p62
F0.1966593871339162
sS'([1, 2, 3, 6], [4], [5])'
p63
F0.7092208915729845
sS'([1, 3], [2, 4, 5, 6])'
p64
F0.3085085538646833
sS'([1], [2], [3, 5], [4], [6])'
p65
F0.14171024226602527
sS'([1], [2, 6], [3, 4], [5])'
p66
F0.14311660310573637
sS'([1], [2, 4, 5], [3], [6])'
p67
F0.2116218163019771
sS'([1, 6], [2, 3, 4], [5])'
p68
F0.4558678779062632
sS'([1, 3], [2], [4, 6], [5])'
p69
F0.17928606798204902
sS'([1, 2, 4, 6], [3], [5])'
p70
F0.31339090374174766
sS'([1], [2, 3], [4, 6], [5])'
p71
F0.42996401884057445
sS'([1, 2], [3, 4, 5], [6])'
p72
F0.2147189688200128
sS'([1], [2], [3, 5, 6], [4])'
p73
F0.20476556884059924
sS'([1, 2, 3], [4, 6], [5])'
p74
F0.6764255219425979
sS'([1, 3, 4, 6], [2], [5])'
p75
F0.3272346122986422
sS'([1, 2], [3, 6], [4], [5])'
p76
F0.16945252553346685
sS'([1, 4], [2, 3], [5, 6])'
p77
F0.43596489749522077
sS'([1, 5], [2, 4, 6], [3])'
p78
F0.19073670520953911
sS'([1, 2], [3, 4, 5, 6])'
p79
F0.3154137143743789
sS'([1, 2, 6], [3], [4], [5])'
p80
F0.20623494469378503
sS'([1, 2, 4], [3, 6], [5])'
p81
F0.20856211748965378
sS'([1, 2, 3, 5], [4, 6])'
p82
F0.7089550925420945
sS'([1], [2], [3, 4], [5, 6])'
p83
F0.15374255666220407
sS'([1, 2], [3], [4, 5, 6])'
p84
F0.21386008163259648
sS'([1, 4], [2, 3, 5], [6])'
p85
F0.479679837058352
sS'([1], [2], [3, 5], [4, 6])'
p86
F0.15729995157380797
sS'([1, 2, 3, 4], [5, 6])'
p87
F0.6875477923785631
sS'([1, 3, 5], [2], [4], [6])'
p88
F0.2177271582381514
sS'([1], [2], [3], [4], [5, 6])'
p89
F0.14798456497006518
sS'([1], [2, 3, 6], [4], [5])'
p90
F0.44700460168057926
sS'([1], [2, 5, 6], [3, 4])'
p91
F0.1925206354406925
sS'([1, 2, 5], [3], [4], [6])'
p92
F0.2127343092232293
sS'([1, 2, 3, 5, 6], [4])'
p93
F0.7403041851601732
sS'([1, 2, 4], [3, 5], [6])'
p94
F0.20782887357233523
sS'([1], [2], [3, 4, 6], [5])'
p95
F0.1817836418559622
sS'([1, 4], [2, 3, 6], [5])'
p96
F0.4552700151974684
sS'([1, 3, 6], [2, 4, 5])'
p97
F0.3025182203667596
sS'([1, 3], [2, 5], [4, 6])'
p98
F0.20593968728415749
sS'([1], [2, 4], [3], [5, 6])'
p99
F0.1548228774947
sS'([1, 2, 4], [3], [5], [6])'
p100
F0.19661247933495876
sS'([1, 3, 5], [2], [4, 6])'
p101
F0.22836523191353797
sS'([1], [2, 6], [3, 4, 5])'
p102
F0.20207154099979055
sS'([1, 4, 5], [2], [3], [6])'
p103
F0.20056543409759495
sS'([1, 3, 4, 5], [2], [6])'
p104
F0.2999281487463955
sS'([1], [2, 5, 6], [3], [4])'
p105
F0.18808979574030626
sS'([1, 2, 4], [3, 5, 6])'
p106
F0.2684395830956357
sS'([1, 4, 6], [2], [3, 5])'
p107
F0.2329617060053468
sS'([1, 4], [2], [3], [5, 6])'
p108
F0.1698328320610377
sS'([1, 3, 4, 5], [2, 6])'
p109
F0.31331302329794913
sS'([1], [2, 4], [3, 5, 6])'
p110
F0.20945984293907016
sS'([1, 5], [2, 6], [3], [4])'
p111
F0.159948618252903
sS'([1, 6], [2, 5], [3, 4])'
p112
F0.17986675488846712
sS'([1, 4, 5], [2, 3, 6])'
p113
F0.4834987658789708
sS'([1, 3], [2, 4, 5], [6])'
p114
F0.2510183571606554
sS'([1], [2, 3], [4, 5, 6])'
p115
F0.4514657707099842
sS'([1, 2, 3, 5], [4], [6])'
p116
F0.703856357581286
sS'([1, 2], [3, 4], [5, 6])'
p117
F0.17939777710551494
sS'([1], [2], [3, 4], [5], [6])'
p118
F0.13128078386476846
sS'([1], [2, 3, 6], [4, 5])'
p119
F0.4524026331997711
sS'([1, 6], [2, 4], [3], [5])'
p120
F0.15792581717237172
sS'([1, 3, 5], [2, 4, 6])'
p121
F0.25726741931296904
sS'([1, 3], [2, 6], [4, 5])'
p122
F0.20156557894252172
sS'([1, 2], [3], [4, 5], [6])'
p123
F0.1715759930019772
sS'([1, 3, 6], [2], [4, 5])'
p124
F0.2407779467075553
sS'([1, 4, 6], [2, 3, 5])'
p125
F0.5097699607945164
sS'([1], [2, 3, 4, 6], [5])'
p126
F0.4944226519199552
sS'([1, 5, 6], [2, 3, 4])'
p127
F0.48370342737413397
sS'([1, 2, 4, 5, 6], [3])'
p128
F0.42700018263029677
sS'([1, 3, 6], [2, 4], [5])'
p129
F0.23527897190831898
sS'([1], [2, 3, 4, 5, 6])'
p130
F0.5800297153781936
sS'([1, 2, 6], [3, 4], [5])'
p131
F0.21060762865785804
sS'([1, 3], [2, 4], [5], [6])'
p132
F0.17256559151973536
sS'([1, 3, 4], [2, 5], [6])'
p133
F0.2279078059624368
sS'([1, 5], [2, 4], [3, 6])'
p134
F0.17100117344356805
sS'([1, 5], [2, 3, 6], [4])'
p135
F0.46261748184787405
sS'([1, 6], [2], [3, 5], [4])'
p136
F0.16740863603640155
sS'([1, 3, 4], [2, 5, 6])'
p137
F0.2542614076551463
sS'([1], [2], [3], [4, 6], [5])'
p138
F0.14127025944379076
sS'([1], [2, 6], [3, 5], [4])'
p139
F0.15423890254139713
sS'([1, 2, 3], [4, 5], [6])'
p140
F0.6808333079040506
sS'([1, 3], [2, 5], [4], [6])'
p141
F0.19653825933758182
sS'([1, 5], [2, 3], [4], [6])'
p142
F0.4403596779738776
sS'([1, 5], [2], [3], [4, 6])'
p143
F0.16298588047164173
sS'([1, 3], [2], [4], [5, 6])'
p144
F0.18390746468769378
sS'([1, 4, 5], [2, 3], [6])'
p145
F0.46339355931843124
sS'([1], [2, 3], [4], [5], [6])'
p146
F0.4235825611426988
sS'([1, 6], [2, 5], [3], [4])'
p147
F0.17597781073962177
sS'([1, 3], [2], [4, 5], [6])'
p148
F0.186551745615431
sS'([1], [2, 4], [3, 6], [5])'
p149
F0.1438996495822771
sS'([1, 5], [2], [3, 4], [6])'
p150
F0.1543297486543616
sS'([1], [2, 5], [3], [4], [6])'
p151
F0.1506613678442353
sS'([1], [2, 4], [3, 5], [6])'
p152
F0.1452647534763598
sS'([1, 2, 5], [3, 4, 6])'
p153
F0.263108856364156
sS'([1], [2, 5], [3, 6], [4])'
p154
F0.16377936510667368
sS'([1], [2, 5], [3, 4], [6])'
p155
F0.15424109370484587
sS'([1, 2, 3], [4], [5], [6])'
p156
F0.6716035609810279
sS'([1, 2, 4, 5], [3, 6])'
p157
F0.31074846611737866
sS'([1, 2, 3, 4], [5], [6])'
p158
F0.6840594839265862
sS'([1], [2], [3], [4, 5, 6])'
p159
F0.18765506539955998
sS'([1, 4], [2, 5], [3], [6])'
p160
F0.1721579590880327
sS'([1, 3, 4], [2, 6], [5])'
p161
F0.21499186356248806
sS'([1, 3, 5], [2, 4], [6])'
p162
F0.2249879694281667
sS'([1], [2], [3, 6], [4, 5])'
p163
F0.15768056772749436
sS'([1, 3, 4, 5, 6], [2])'
p164
F0.4539306414667915
sS'([1, 2, 5, 6], [3], [4])'
p165
F0.2808822743559439
sS'([1, 2, 4, 6], [3, 5])'
p166
F0.32241277134557805
sS'([1, 5], [2], [3, 4, 6])'
p167
F0.19732164935975294
sS'([1], [2, 6], [3], [4, 5])'
p168
F0.1568379079830192
sS'([1], [2], [3, 4, 5], [6])'
p169
F0.18892816039443192
sS'([1, 3, 4, 6], [2, 5])'
p170
F0.34198028152230825
sS'([1, 6], [2], [3], [4], [5])'
p171
F0.15138548745041025
sS'([1, 2, 4], [3], [5, 6])'
p172
F0.2156738298834947
sS'([1, 2, 5], [3, 6], [4])'
p173
F0.2284631418261778
sS'([1, 3, 5, 6], [2, 4])'
p174
F0.31529943894823914
sS'([1, 2, 6], [3, 5], [4])'
p175
F0.2236230746660644
sS'([1, 6], [2, 4], [3, 5])'
p176
F0.17261254686790264
sS'([1, 2, 3, 4, 5], [6])'
p177
F0.7462028993862587
sS'([1], [2, 5], [3], [4, 6])'
p178
F0.16370546254867202
sS'([1, 2, 3], [4, 5, 6])'
p179
F0.6940202107540997
sS'([1, 4], [2, 6], [3], [5])'
p180
F0.16035954753492002
sS'([1, 4, 5], [2], [3, 6])'
p181
F0.21215417612046852
sS'([1, 2, 3, 4, 6], [5])'
p182
F0.7383100961527683
sS'([1], [2, 3, 4, 5], [6])'
p183
F0.5152047562026657
sS'([1], [2, 4, 6], [3, 5])'
p184
F0.1916970693767123
sS'([1, 2, 3], [4], [5, 6])'
p185
F0.6734783838721686
sS'([1, 4], [2], [3, 5, 6])'
p186
F0.22351134902367029
sS'([1, 4], [2, 6], [3, 5])'
p187
F0.1772907346063732
sS'([1, 5], [2, 4], [3], [6])'
p188
F0.15460554968801757
sS'([1, 4, 5, 6], [2], [3])'
p189
F0.3052003196422984
sS'([1, 3], [2, 4], [5, 6])'
p190
F0.19095166157157203
sS'([1, 4, 6], [2], [3], [5])'
p191
F0.2151985335834246
sS'([1, 6], [2, 4, 5], [3])'
p192
F0.23514380076086944
sS'([1], [2], [3], [4], [5], [6])'
p193
F0.12444052987246791
sS'([1, 6], [2, 3, 5], [4])'
p194
F0.4744761053225447
sS'([1, 2], [3, 4], [5], [6])'
p195
F0.15866109174761986
sS'([1], [2, 4, 6], [3], [5])'
p196
F0.18214646021000233
sS'([1, 2, 5], [3], [4, 6])'
p197
F0.22787760433423226
sS'([1, 5], [2], [3, 6], [4])'
p198
F0.16323759833228757
sS'([1], [2], [3, 6], [4], [5])'
p199
F0.13801332564469224
sS'([1, 5], [2, 6], [3, 4])'
p200
F0.16550864731014983
sS'([1, 3, 4], [2], [5], [6])'
p201
F0.20670999630830647
sS'([1, 3, 5], [2, 6], [4])'
p202
F0.2324698585424367
sS'([1, 2, 4, 5], [3], [6])'
p203
F0.2969947670282818
s.