(dp0
S'([1, 5], [2, 3, 4, 6])'
p1
F0.9651475859392021
sS'([1, 3, 5, 6], [2], [4])'
p2
F0.8527397673521068
sS'([1, 4], [2], [3, 5], [6])'
p3
F0.6624889503961305
sS'([1, 2, 5, 6], [3, 4])'
p4
F0.8767236600152954
sS'([1, 5], [2, 3], [4, 6])'
p5
F0.9421158429603615
sS'([1, 2, 3, 4, 5, 6],)'
p6
F0.9982809842794899
sS'([1, 4], [2], [3, 6], [5])'
p7
F0.6446109571243456
sS'([1, 5, 6], [2], [3, 4])'
p8
F0.7395251960052244
sS'([1, 3], [2, 5, 6], [4])'
p9
F0.775069931611083
sS'([1, 6], [2, 3], [4], [5])'
p10
F0.9398515009639282
sS'([1, 3], [2, 4, 6], [5])'
p11
F0.7432000118614398
sS'([1], [2, 3, 5], [4], [6])'
p12
F0.9387531493582059
sS'([1, 2, 6], [3, 4, 5])'
p13
F0.828406643683384
sS'([1, 4, 5, 6], [2, 3])'
p14
F0.9711875269306686
sS'([1, 3], [2], [4, 5, 6])'
p15
F0.7450536563335891
sS'([1, 2], [3], [4, 6], [5])'
p16
F0.6831914550269939
sS'([1], [2, 3, 5, 6], [4])'
p17
F0.9592667668017602
sS'([1, 4], [2, 3], [5], [6])'
p18
F0.9348431480034629
sS'([1, 6], [2, 3, 4, 5])'
p19
F0.965146542720399
sS'([1, 2], [3, 5, 6], [4])'
p20
F0.7584032041828135
sS'([1, 2], [3], [4], [5, 6])'
p21
F0.680653392683882
sS'([1], [2, 3, 4], [5, 6])'
p22
F0.9476816181408668
sS'([1, 4, 5], [2, 6], [3])'
p23
F0.7371822311488994
sS'([1, 6], [2], [3], [4, 5])'
p24
F0.6644503715003912
sS'([1], [2, 3, 4], [5], [6])'
p25
F0.9404076472248326
sS'([1], [2, 5], [3, 4, 6])'
p26
F0.7553941141328786
sS'([1], [2, 3, 5], [4, 6])'
p27
F0.9456186916247279
sS'([1], [2], [3], [4, 5], [6])'
p28
F0.636787213653258
sS'([1], [2], [3, 4, 5, 6])'
p29
F0.8180358453595787
sS'([1, 2], [3, 5], [4], [6])'
p30
F0.6870833877728203
sS'([1, 2, 6], [3], [4, 5])'
p31
F0.7693600642609645
sS'([1], [2, 3], [4], [5, 6])'
p32
F0.9387260849469519
sS'([1], [2, 4, 5, 6], [3])'
p33
F0.8466928168925766
sS'([1], [2, 4], [3], [5], [6])'
p34
F0.6299405190354009
sS'([1, 5], [2], [3], [4], [6])'
p35
F0.6394950119162085
sS'([1, 2], [3, 6], [4, 5])'
p36
F0.6992487939913888
sS'([1, 3], [2], [4], [5], [6])'
p37
F0.6432845080088044
sS'([1, 2], [3, 5], [4, 6])'
p38
F0.7164889230792951
sS'([1, 5], [2, 3, 4], [6])'
p39
F0.9446533442182156
sS'([1, 2, 5], [3, 4], [6])'
p40
F0.7753105254189318
sS'([1, 4, 6], [2, 3], [5])'
p41
F0.9509704730020822
sS'([1], [2, 3], [4, 5], [6])'
p42
F0.935085551052725
sS'([1], [2, 4, 5], [3, 6])'
p43
F0.7347298216332355
sS'([1, 3], [2, 6], [4], [5])'
p44
F0.6764392804226776
sS'([1, 2], [3], [4], [5], [6])'
p45
F0.652184809554918
sS'([1, 5, 6], [2, 3], [4])'
p46
F0.9517557418714642
sS'([1, 4], [2, 5, 6], [3])'
p47
F0.7579830365826302
sS'([1, 5, 6], [2], [3], [4])'
p48
F0.7176181404182299
sS'([1, 3, 4], [2], [5, 6])'
p49
F0.744895603518492
sS'([1, 6], [2], [3, 4], [5])'
p50
F0.6558828950774457
sS'([1, 4], [2], [3], [5], [6])'
p51
F0.6257349651418836
sS'([1, 4], [2, 3, 5, 6])'
p52
F0.9644047167684711
sS'([1, 2], [3, 4, 6], [5])'
p53
F0.7492637222650286
sS'([1, 6], [2, 3], [4, 5])'
p54
F0.9430002674217565
sS'([1, 2, 3, 6], [4, 5])'
p55
F0.9805936016844506
sS'([1, 3, 6], [2, 5], [4])'
p56
F0.7692866015063188
sS'([1, 3, 6], [2], [4], [5])'
p57
F0.7247943957659447
sS'([1], [2, 6], [3], [4], [5])'
p58
F0.6393438291205549
sS'([1, 4], [2, 5], [3, 6])'
p59
F0.6927225498667972
sS'([1, 6], [2], [3, 4, 5])'
p60
F0.7228090436660289
sS'([1, 4, 6], [2, 5], [3])'
p61
F0.742239114774209
sS'([1, 5, 6], [2, 4], [3])'
p62
F0.7328561106763092
sS'([1, 2, 3, 6], [4], [5])'
p63
F0.9788144926802449
sS'([1, 3], [2, 4, 5, 6])'
p64
F0.8751306916349847
sS'([1], [2], [3, 5], [4], [6])'
p65
F0.6430507231745367
sS'([1], [2, 6], [3, 4], [5])'
p66
F0.6653755257952365
sS'([1], [2, 4, 5], [3], [6])'
p67
F0.7179224344846594
sS'([1, 6], [2, 3, 4], [5])'
p68
F0.9489181668176468
sS'([1, 3], [2], [4, 6], [5])'
p69
F0.6696867427771147
sS'([1, 2, 4, 6], [3], [5])'
p70
F0.8428772202088012
sS'([1], [2, 3], [4, 6], [5])'
p71
F0.9385994975251682
sS'([1, 2], [3, 4, 5], [6])'
p72
F0.7523226655671403
sS'([1], [2], [3, 5, 6], [4])'
p73
F0.7166499857137355
sS'([1, 2, 3], [4, 6], [5])'
p74
F0.9678038249016933
sS'([1, 3, 4, 6], [2], [5])'
p75
F0.8374107524629623
sS'([1, 2], [3, 6], [4], [5])'
p76
F0.6716479055043191
sS'([1, 4], [2, 3], [5, 6])'
p77
F0.9421490616957717
sS'([1, 5], [2, 4, 6], [3])'
p78
F0.744577250623878
sS'([1, 2], [3, 4, 5, 6])'
p79
F0.8550543280474302
sS'([1, 2, 6], [3], [4], [5])'
p80
F0.7447357470947401
sS'([1, 2, 4], [3, 6], [5])'
p81
F0.7342091755136112
sS'([1, 2, 3, 5], [4, 6])'
p82
F0.9824065793352594
sS'([1], [2], [3, 4], [5, 6])'
p83
F0.6661555457913252
sS'([1, 2], [3], [4, 5, 6])'
p84
F0.7512411306492391
sS'([1, 4], [2, 3, 5], [6])'
p85
F0.9430852206855941
sS'([1], [2], [3, 5], [4, 6])'
p86
F0.6730416523561314
sS'([1, 2, 3, 4], [5, 6])'
p87
F0.9838598555773377
sS'([1, 3, 5], [2], [4], [6])'
p88
F0.7357723116459508
sS'([1], [2], [3], [4], [5, 6])'
p89
F0.6400972244987734
sS'([1], [2, 3, 6], [4], [5])'
p90
F0.9414291053234779
sS'([1], [2, 5, 6], [3, 4])'
p91
F0.7580854465044707
sS'([1, 2, 5], [3], [4], [6])'
p92
F0.7489922105923627
sS'([1, 2, 3, 5, 6], [4])'
p93
F0.9920675713767239
sS'([1, 2, 4], [3, 5], [6])'
p94
F0.7533091312020347
sS'([1], [2], [3, 4, 6], [5])'
p95
F0.7072919032725012
sS'([1, 4], [2, 3, 6], [5])'
p96
F0.9447339272699187
sS'([1, 3, 6], [2, 4, 5])'
p97
F0.8204502928822458
sS'([1, 3], [2, 5], [4, 6])'
p98
F0.719880982751124
sS'([1], [2, 4], [3], [5, 6])'
p99
F0.6614458791795836
sS'([1, 2, 4], [3], [5], [6])'
p100
F0.7197011169624871
sS'([1, 3, 5], [2], [4, 6])'
p101
F0.7617368514620985
sS'([1], [2, 6], [3, 4, 5])'
p102
F0.7355175938366706
sS'([1, 4, 5], [2], [3], [6])'
p103
F0.7084397874236669
sS'([1, 3, 4, 5], [2], [6])'
p104
F0.8278728986665115
sS'([1], [2, 5, 6], [3], [4])'
p105
F0.7362201354266765
sS'([1, 2, 4], [3, 5, 6])'
p106
F0.8096578353574031
sS'([1, 4, 6], [2], [3, 5])'
p107
F0.7312952532822954
sS'([1, 4], [2], [3], [5, 6])'
p108
F0.6598569535018626
sS'([1, 3, 4, 5], [2, 6])'
p109
F0.8527627040264941
sS'([1], [2, 4], [3, 5, 6])'
p110
F0.7390863583734403
sS'([1, 5], [2, 6], [3], [4])'
p111
F0.6724226948831835
sS'([1, 6], [2, 5], [3, 4])'
p112
F0.7025701597408472
sS'([1, 4, 5], [2, 3, 6])'
p113
F0.9554900817045135
sS'([1, 3], [2, 4, 5], [6])'
p114
F0.7604381009553324
sS'([1], [2, 3], [4, 5, 6])'
p115
F0.9514704396523816
sS'([1, 2, 3, 5], [4], [6])'
p116
F0.9789699401247398
sS'([1, 2], [3, 4], [5, 6])'
p117
F0.7095972807323533
sS'([1], [2], [3, 4], [5], [6])'
p118
F0.6319372159284348
sS'([1], [2, 3, 6], [4, 5])'
p119
F0.9442136808390914
sS'([1, 6], [2, 4], [3], [5])'
p120
F0.6556092570605518
sS'([1, 3, 5], [2, 4, 6])'
p121
F0.8273032027522212
sS'([1, 3], [2, 6], [4, 5])'
p122
F0.708883429473887
sS'([1, 2], [3], [4, 5], [6])'
p123
F0.6812536695308129
sS'([1, 3, 6], [2], [4, 5])'
p124
F0.7472821989366493
sS'([1, 4, 6], [2, 3, 5])'
p125
F0.957999996254788
sS'([1], [2, 3, 4, 6], [5])'
p126
F0.9624766382946776
sS'([1, 5, 6], [2, 3, 4])'
p127
F0.9609409555800973
sS'([1, 2, 4, 5, 6], [3])'
p128
F0.9438187621371031
sS'([1, 3, 6], [2, 4], [5])'
p129
F0.7446736101816053
sS'([1], [2, 3, 4, 5, 6])'
p130
F0.9822203822860297
sS'([1, 2, 6], [3, 4], [5])'
p131
F0.7660847211283056
sS'([1, 3], [2, 4], [5], [6])'
p132
F0.6677935518419772
sS'([1, 3, 4], [2, 5], [6])'
p133
F0.7748891005903317
sS'([1, 5], [2, 4], [3, 6])'
p134
F0.6829678541926384
sS'([1, 5], [2, 3, 6], [4])'
p135
F0.9450527714370552
sS'([1, 6], [2], [3, 5], [4])'
p136
F0.6671778014981361
sS'([1, 3, 4], [2, 5, 6])'
p137
F0.8466621770982378
sS'([1], [2], [3], [4, 6], [5])'
p138
F0.6365191478618203
sS'([1], [2, 6], [3, 5], [4])'
p139
F0.6780910989220172
sS'([1, 2, 3], [4, 5], [6])'
p140
F0.9669893767780237
sS'([1, 3], [2, 5], [4], [6])'
p141
F0.6912960477819297
sS'([1, 5], [2, 3], [4], [6])'
p142
F0.935777905927876
sS'([1, 5], [2], [3], [4, 6])'
p143
F0.6686223579746057
sS'([1, 3], [2], [4], [5, 6])'
p144
F0.67542609920083
sS'([1, 4, 5], [2, 3], [6])'
p145
F0.9469289849373481
sS'([1], [2, 3], [4], [5], [6])'
p146
F0.931338144380444
sS'([1, 6], [2, 5], [3], [4])'
p147
F0.6776412742424849
sS'([1, 3], [2], [4, 5], [6])'
p148
F0.6744992993479452
sS'([1], [2, 4], [3, 6], [5])'
p149
F0.6514995288372748
sS'([1, 5], [2], [3, 4], [6])'
p150
F0.6681364741563637
sS'([1], [2, 5], [3], [4], [6])'
p151
F0.6479696311019217
sS'([1], [2, 4], [3, 5], [6])'
p152
F0.67034494947965
sS'([1, 2, 5], [3, 4, 6])'
p153
F0.8279402839114319
sS'([1], [2, 5], [3, 6], [4])'
p154
F0.6683162198469573
sS'([1], [2, 5], [3, 4], [6])'
p155
F0.6770648590813063
sS'([1, 2, 3], [4], [5], [6])'
p156
F0.9633414330944248
sS'([1, 2, 4, 5], [3, 6])'
p157
F0.8616910740000995
sS'([1, 2, 3, 4], [5], [6])'
p158
F0.9810612871502514
sS'([1], [2], [3], [4, 5, 6])'
p159
F0.7156751735923322
sS'([1, 4], [2, 5], [3], [6])'
p160
F0.6743773376167385
sS'([1, 3, 4], [2, 6], [5])'
p161
F0.7535093115899985
sS'([1, 3, 5], [2, 4], [6])'
p162
F0.760576011427257
sS'([1], [2], [3, 6], [4, 5])'
p163
F0.6565061165396268
sS'([1, 3, 4, 5, 6], [2])'
p164
F0.932959512241074
sS'([1, 2, 5, 6], [3], [4])'
p165
F0.86012827272455
sS'([1, 2, 4, 6], [3, 5])'
p166
F0.8559594610680138
sS'([1, 5], [2], [3, 4, 6])'
p167
F0.7378691949126112
sS'([1], [2, 6], [3], [4, 5])'
p168
F0.6703831675457206
sS'([1], [2], [3, 4, 5], [6])'
p169
F0.7000078184619479
sS'([1, 3, 4, 6], [2, 5])'
p170
F0.8786138478595291
sS'([1, 6], [2], [3], [4], [5])'
p171
F0.632416272325495
sS'([1, 2, 4], [3], [5, 6])'
p172
F0.7450498884171223
sS'([1, 2, 5], [3, 6], [4])'
p173
F0.7654354019433444
sS'([1, 3, 5, 6], [2, 4])'
p174
F0.868447073729793
sS'([1, 2, 6], [3, 5], [4])'
p175
F0.7743288876774784
sS'([1, 6], [2, 4], [3, 5])'
p176
F0.6941030951363398
sS'([1, 2, 3, 4, 5], [6])'
p177
F0.9931045244806403
sS'([1], [2, 5], [3], [4, 6])'
p178
F0.6816013665767243
sS'([1, 2, 3], [4, 5, 6])'
p179
F0.9781504845467749
sS'([1, 4], [2, 6], [3], [5])'
p180
F0.6604140276043257
sS'([1, 4, 5], [2], [3, 6])'
p181
F0.7273109155377949
sS'([1, 2, 3, 4, 6], [5])'
p182
F0.9921184739229593
sS'([1], [2, 3, 4, 5], [6])'
p183
F0.9605697353009284
sS'([1], [2, 4, 6], [3, 5])'
p184
F0.7478249611988911
sS'([1, 2, 3], [4], [5, 6])'
p185
F0.9675914072053101
sS'([1, 4], [2], [3, 5, 6])'
p186
F0.7350570156829953
sS'([1, 4], [2, 6], [3, 5])'
p187
F0.6986032506758694
sS'([1, 5], [2, 4], [3], [6])'
p188
F0.6606975189090702
sS'([1, 4, 5, 6], [2], [3])'
p189
F0.8234137308339134
sS'([1, 3], [2, 4], [5, 6])'
p190
F0.6975732115017531
sS'([1, 4, 6], [2], [3], [5])'
p191
F0.7005283062435487
sS'([1, 6], [2, 4, 5], [3])'
p192
F0.7424106629312999
sS'([1], [2], [3], [4], [5], [6])'
p193
F0.605695351599777
sS'([1, 6], [2, 3, 5], [4])'
p194
F0.9454306976430279
sS'([1, 2], [3, 4], [5], [6])'
p195
F0.6815952216740185
sS'([1], [2, 4, 6], [3], [5])'
p196
F0.7153808776033396
sS'([1, 2, 5], [3], [4, 6])'
p197
F0.773651317191957
sS'([1, 5], [2], [3, 6], [4])'
p198
F0.6609055158720566
sS'([1], [2], [3, 6], [4], [5])'
p199
F0.6266011642301156
sS'([1, 5], [2, 6], [3, 4])'
p200
F0.6994109874100919
sS'([1, 3, 4], [2], [5], [6])'
p201
F0.7171322594387292
sS'([1, 3, 5], [2, 6], [4])'
p202
F0.7649336234673408
sS'([1, 2, 4, 5], [3], [6])'
p203
F0.8516125545757213
s.